target datalayout = "e-m:e-p270:32:32-p271:32:32-p272:64:64-i64:64-i128:128-f80:128-n8:16:32:64-S128"
target triple = "x86_64-pc-linux-gnu"

%struct.stat = type { i64, i64, i64, i32, i32, i32, i32, i64, i64, i64, i64, %struct.timespec, %struct.timespec, %struct.timespec, [3 x i64] }
%struct.timespec = type { i64, i64 }
%class.ClasspathStream = type <{ ptr, i32, i32, i32, [4 x i8] }>

; Function Attrs: mustprogress nounwind uwtable
define linkonce_odr hidden noundef zeroext i1 @_ZN15ClasspathStream8has_nextEv(ptr noundef nonnull align 8 dereferenceable(20) %0) #1 comdat align 2 {
  %2 = alloca ptr, align 8
  store ptr %0, ptr %2, align 8
  %3 = load ptr, ptr %2, align 8
  %4 = getelementptr inbounds %class.ClasspathStream, ptr %3, i32 0, i32 2
  %5 = load i32, ptr %4, align 4
  %6 = getelementptr inbounds %class.ClasspathStream, ptr %3, i32 0, i32 1
  %7 = load i32, ptr %6, align 8
  %8 = icmp slt i32 %5, %7
  ret i1 %8
}

; Function Attrs: mustprogress nounwind uwtable
define linkonce_odr hidden void @_ZN15ClasspathStreamC2EPKc(ptr noundef nonnull align 8 dereferenceable(20) %0, ptr noundef %1) unnamed_addr #1 comdat align 2 {
  %3 = alloca ptr, align 8
  %4 = alloca ptr, align 8
  store ptr %0, ptr %3, align 8
  store ptr %1, ptr %4, align 8
  %5 = load ptr, ptr %3, align 8
  %6 = load ptr, ptr %4, align 8
  %7 = getelementptr inbounds %class.ClasspathStream, ptr %5, i32 0, i32 0
  store ptr %6, ptr %7, align 8
  %8 = load ptr, ptr %4, align 8
  %9 = call i64 @strlen(ptr noundef %8) #12
  %10 = trunc i64 %9 to i32
  %11 = getelementptr inbounds %class.ClasspathStream, ptr %5, i32 0, i32 1
  store i32 %10, ptr %11, align 8
  %12 = getelementptr inbounds %class.ClasspathStream, ptr %5, i32 0, i32 2
  store i32 0, ptr %12, align 4
  %13 = getelementptr inbounds %class.ClasspathStream, ptr %5, i32 0, i32 3
  store i32 0, ptr %13, align 8
  ret void
}

; Function Attrs: mustprogress nounwind uwtable
define hidden noundef zeroext i1 @_ZN11FileMapInfo21check_paths_existenceEPKc(ptr noundef nonnull align 8 dereferenceable(40) %0, ptr noundef %1) #1 align 2 {
  %3 = alloca ptr, align 8
  %4 = alloca ptr, align 8
  %5 = alloca %class.ClasspathStream, align 8
  %6 = alloca i8, align 1
  %7 = alloca %struct.stat, align 8
  %8 = alloca ptr, align 8
  store ptr %0, ptr %3, align 8
  store ptr %1, ptr %4, align 8
  %9 = load ptr, ptr %4, align 8
  call void @_ZN15ClasspathStreamC2EPKc(ptr noundef nonnull align 8 dereferenceable(20) %5, ptr noundef %9)
  store i8 0, ptr %6, align 1
  br label %10

10:                                               ; preds = %22, %2
  %11 = call noundef zeroext i1 @_ZN15ClasspathStream8has_nextEv(ptr noundef nonnull align 8 dereferenceable(20) %5)
  br i1 %11, label %12, label %23

12:                                               ; preds = %10
  %13 = call noundef ptr @_ZN15ClasspathStream8get_nextEv(ptr noundef nonnull align 8 dereferenceable(20) %5)
  store ptr %13, ptr %8, align 8
  %14 = load ptr, ptr %8, align 8
  %15 = call noundef i32 @_ZN2os4statEPKcP4stat(ptr noundef %14, ptr noundef %7)
  %16 = icmp eq i32 %15, 0
  br i1 %16, label %17, label %22

17:                                               ; preds = %12
  %18 = getelementptr inbounds %struct.stat, ptr %7, i32 0, i32 8
  %19 = load i64, ptr %18, align 8
  %20 = icmp sgt i64 %19, 0
  br i1 %20, label %21, label %22

21:                                               ; preds = %17
  store i8 1, ptr %6, align 1
  br label %23

22:                                               ; preds = %17, %12
  br label %10, !llvm.loop !20

23:                                               ; preds = %21, %10
  %24 = load i8, ptr %6, align 1
  %25 = trunc i8 %24 to i1
  ret i1 %25
}