; Function Attrs: mustprogress nounwind uwtable
define hidden noundef zeroext i1 @_ZN11FileMapInfo21check_paths_existenceEPKc(ptr nocapture noundef nonnull readnone align 8 dereferenceable(40) %0, ptr noundef %1) local_unnamed_addr #0 align 2 {
  %3 = alloca %class.ClasspathStream, align 8
  %4 = alloca %struct.stat, align 8
  store ptr %1, ptr %3, align 8
  %5 = tail call i64 @strlen(ptr noundef nonnull dereferenceable(1) %1) #26
  %6 = trunc i64 %5 to i32
  %7 = getelementptr inbounds i8, ptr %3, i64 8
  store i32 %6, ptr %7, align 8
  %8 = getelementptr inbounds i8, ptr %3, i64 12
  store i32 0, ptr %8, align 4
  %9 = getelementptr inbounds i8, ptr %3, i64 16
  store i32 0, ptr %9, align 8
  %10 = getelementptr inbounds i8, ptr %4, i64 48
  br label %11

11:                                               ; preds = %15, %2
  %12 = load i32, ptr %8, align 4
  %13 = load i32, ptr %7, align 8
  %14 = icmp slt i32 %12, %13
  br i1 %14, label %15, label %21

15:                                               ; preds = %11
  %16 = call noundef ptr @_ZN15ClasspathStream8get_nextEv(ptr noundef nonnull align 8 dereferenceable(20) %3) #25
  %17 = call noundef i32 @_ZN2os4statEPKcP4stat(ptr noundef %16, ptr noundef nonnull %4) #25
  %18 = icmp eq i32 %17, 0
  %19 = load i64, ptr %10, align 8
  %20 = icmp sgt i64 %19, 0
  %or.cond = select i1 %18, i1 %20, i1 false
  br i1 %or.cond, label %21, label %11, !llvm.loop !20

21:                                               ; preds = %15, %11
  ret i1 %14
}